target datalayout = "e-m:e-p270:32:32-p271:32:32-p272:64:64-i64:64-i128:128-f80:128-n8:16:32:64-S128"
target triple = "x86_64-pc-linux-gnu"

%"class.clang::OMPChildren" = type <{ i32, i32, i8, [7 x i8] }>

; Function Attrs: mustprogress nounwind uwtable
define linkonce_odr hidden void @_ZN5clang11OMPChildrenC2Ejjb(ptr noundef nonnull align 8 dereferenceable(16) %0, i32 noundef %1, i32 noundef %2, i1 noundef zeroext %3) unnamed_addr #0 comdat align 2 {
  %5 = alloca ptr, align 8
  %6 = alloca i32, align 4
  %7 = alloca i32, align 4
  %8 = alloca i8, align 1
  store ptr %0, ptr %5, align 8
  store i32 %1, ptr %6, align 4
  store i32 %2, ptr %7, align 4
  %9 = zext i1 %3 to i8
  store i8 %9, ptr %8, align 1
  %10 = load ptr, ptr %5, align 8
  %11 = getelementptr inbounds nuw %"class.clang::OMPChildren", ptr %10, i32 0, i32 0
  %12 = load i32, ptr %6, align 4
  store i32 %12, ptr %11, align 8
  %13 = getelementptr inbounds nuw %"class.clang::OMPChildren", ptr %10, i32 0, i32 1
  %14 = load i32, ptr %7, align 4
  store i32 %14, ptr %13, align 4
  %15 = getelementptr inbounds nuw %"class.clang::OMPChildren", ptr %10, i32 0, i32 2
  %16 = load i8, ptr %8, align 1
  %17 = trunc i8 %16 to i1
  %18 = zext i1 %17 to i8
  store i8 %18, ptr %15, align 8
  ret void
}

; Function Attrs: mustprogress nounwind uwtable
define dso_local noundef ptr @_ZN5clang11OMPChildren11CreateEmptyEPvjbj(ptr noundef %0, i32 noundef %1, i1 noundef zeroext %2, i32 noundef %3) #0 align 2 {
  %5 = alloca ptr, align 8
  %6 = alloca i32, align 4
  %7 = alloca i8, align 1
  %8 = alloca i32, align 4
  store ptr %0, ptr %5, align 8
  store i32 %1, ptr %6, align 4
  %9 = zext i1 %2 to i8
  store i8 %9, ptr %7, align 1
  store i32 %3, ptr %8, align 4
  %10 = load ptr, ptr %5, align 8
  %11 = load i32, ptr %6, align 4
  %12 = load i32, ptr %8, align 4
  %13 = load i8, ptr %7, align 1
  %14 = trunc i8 %13 to i1
  call void @_ZN5clang11OMPChildrenC2Ejjb(ptr noundef nonnull align 8 dereferenceable(16) %10, i32 noundef %11, i32 noundef %12, i1 noundef zeroext %14)
  ret ptr %10
}