; Function Attrs: mustprogress nofree norecurse nosync nounwind willreturn memory(argmem: write) uwtable
define dso_local noundef ptr @_ZN5clang11OMPChildren11CreateEmptyEPvjbj(ptr noundef returned writeonly %0, i32 noundef %1, i1 noundef zeroext %2, i32 noundef %3) local_unnamed_addr #3 align 2 {
  %5 = zext i1 %2 to i8
  store i32 %1, ptr %0, align 8
  %6 = getelementptr inbounds nuw i8, ptr %0, i64 4
  store i32 %3, ptr %6, align 4
  %7 = getelementptr inbounds nuw i8, ptr %0, i64 8
  store i8 %5, ptr %7, align 8
  ret ptr %0
}